Certificate:
    Data:
        Version: 3 (0x2)
        Serial Number:
            21:d6:28:af:2a:15:83:06:d3:88:6a:fb:52:a8:b8:4d
        Signature Algorithm: rsassaPss        
        Hash Algorithm: sha256
        Mask Algorithm: mgf1 with sha256
         Salt Length: 0x20
        Trailer Field: 0x01 (default)
        Issuer: CN=Swisscom Root CA 4, OU=Digital Certificate Services/organizationIdentifier=VATCH-CHE-101.654.423, O=Swisscom, C=CH
        Validity
            Not Before: Jan 31 12:21:58 2019 GMT
            Not After : Jan 28 12:21:58 2029 GMT
        Subject: CN=Swisscom Saphir CA 4, OU=Digital Certificate Services/organizationIdentifier=VATCH-CHE-101.654.423, O=Swisscom (Schweiz) AG, C=ch
        Subject Public Key Info:
            Public Key Algorithm: rsaEncryption
                Public-Key: (4096 bit)
                Modulus:
                    00:cb:18:b9:91:c2:11:ee:8d:3e:69:2a:4c:82:68:
                    b8:9d:6c:5f:73:72:72:0c:69:26:13:75:b5:3a:45:
                    aa:32:21:24:53:c4:38:38:34:4c:98:bf:f0:83:8d:
                    3e:f9:98:87:6d:1c:49:86:1c:9f:d3:42:f0:02:d4:
                    9a:1b:4c:41:a2:fd:e8:8d:e8:ae:b1:5f:06:9e:a4:
                    79:22:a2:28:61:ff:d3:fa:a7:1d:d1:95:72:16:bc:
                    f7:7e:a6:ee:a3:1e:cd:e7:ed:1e:1a:0a:5a:8c:77:
                    99:d6:a5:10:68:b1:17:26:1f:b3:e5:cf:1c:a0:2e:
                    c8:4e:ad:cd:04:b9:d7:66:cf:29:46:15:1d:b7:42:
                    29:08:9a:c5:b7:48:41:56:ea:f9:3a:54:e5:45:25:
                    67:5e:c4:19:1b:56:91:c3:65:01:19:d2:b2:07:4c:
                    c6:5e:f9:8e:b7:74:35:bd:db:b1:ad:d4:f5:1f:c6:
                    9e:15:2b:c7:4f:82:29:16:06:35:2f:84:cd:0f:ca:
                    44:88:6f:92:da:4f:5e:53:0a:fa:83:dc:d8:fa:4f:
                    e1:53:eb:9f:d5:0d:5d:6c:7a:ed:16:a6:42:7f:ac:
                    c9:c7:c5:70:45:f3:82:9c:2b:8b:99:b0:5b:0e:37:
                    9a:2b:aa:2c:d7:09:29:e1:99:9e:b3:31:6b:2e:7e:
                    be:76:3d:0e:5b:ae:2b:ec:82:7d:59:75:3c:e3:38:
                    38:08:9d:2c:54:16:6e:a9:97:80:dd:65:8b:4a:21:
                    07:34:4a:39:fd:88:8d:ea:b2:62:23:5c:f7:dc:93:
                    d7:04:8a:55:a9:40:e6:2d:71:dc:c2:e2:e0:dc:a6:
                    c4:56:f2:75:e6:1f:7c:05:33:d2:a5:ae:28:47:16:
                    83:60:f4:5a:37:22:fb:ff:df:99:04:60:01:2e:d8:
                    03:6a:e5:4e:81:d8:be:6a:86:86:92:b8:3c:38:fa:
                    f2:28:52:11:f7:f3:a7:aa:4f:e1:a8:8b:16:0e:35:
                    48:c6:b6:82:0f:ee:30:97:3a:cd:67:42:0b:de:2a:
                    ae:de:63:5e:94:30:99:4e:cf:94:15:ec:c7:48:9f:
                    49:78:9c:39:40:52:f4:88:ad:f1:b8:cd:ea:6e:80:
                    c6:3a:bd:3c:7e:d7:30:b2:42:97:62:67:a7:ed:b1:
                    3a:cb:43:6f:0a:13:af:89:3f:4b:d3:2e:49:59:df:
                    bc:39:94:83:a2:d9:e4:fb:87:40:6a:fa:1a:0a:9f:
                    f1:86:61:0e:5a:fe:59:41:c8:3e:1a:3b:ee:3c:d6:
                    0b:72:60:d5:3c:4c:f8:b3:88:6c:7e:70:ad:00:03:
                    7f:9d:33:24:c9:30:a5:99:73:62:00:29:c0:19:ac:
                    62:5b:7d
                Exponent: 65537 (0x10001)
        X509v3 extensions:
            X509v3 Basic Constraints: critical
                CA:TRUE, pathlen:0
            X509v3 Subject Key Identifier: 
                F1:EE:E7:5E:01:A1:CF:36:BD:6E:02:09:C6:92:F3:DB:DE:A9:C1:E0
            Authority Information Access: 
                CA Issuers - URI:http://aia.swissdigicert.ch/sdcs-root4.crt
            X509v3 Certificate Policies: 
                Policy: 2.16.756.1.83.30.4.2
                  CPS: http://www.swissdigicert.ch/cps/
            X509v3 Extended Key Usage: 
                1.2.840.113583.1.1.5
            X509v3 CRL Distribution Points: 
                Full Name:
                  URI:http://crl.swissdigicert.ch/sdcs-root4.crl

            X509v3 Authority Key Identifier: 
                54:5A:67:1F:6B:34:F9:9E:59:40:A2:5F:41:7A:3E:C1:08:C6:15:13
            X509v3 Key Usage: critical
                Certificate Sign, CRL Sign
    Signature Algorithm: rsassaPss
    Signature Value:        
        Hash Algorithm: sha256
        Mask Algorithm: mgf1 with sha256
         Salt Length: 0x20
        Trailer Field: 0x01 (default)
        42:46:fa:ec:7a:38:bd:65:8a:5f:4b:00:47:0b:b6:b4:2d:5b:
        94:71:88:8b:61:5d:a3:7e:87:98:b5:33:12:9b:3e:87:2f:1f:
        a4:cf:6c:e4:a7:37:1c:90:92:6c:7a:81:0b:e8:cc:7c:b5:65:
        b5:83:28:9f:7f:e7:f0:ce:90:ab:21:d4:6e:54:08:d6:8d:f6:
        56:4b:1e:4a:d3:4d:81:93:75:4d:c7:e2:9a:a8:62:8d:48:97:
        83:9f:b2:09:ad:14:fb:27:a5:e6:7e:f9:03:48:cf:ac:e6:ec:
        7f:7d:0c:dc:f8:27:7e:6a:ba:1b:4e:0c:25:25:5f:41:8c:f4:
        91:25:2f:06:71:0d:87:fb:54:8c:c1:37:2a:95:ea:a1:d2:e7:
        fd:f2:b9:b8:63:67:90:cb:1c:a5:d6:5b:a6:58:2d:b8:e5:a4:
        1d:1d:9b:9b:94:1a:78:4a:f9:96:18:f1:c0:94:ba:95:0d:70:
        20:f5:5e:95:23:e9:ec:c3:e4:21:9f:18:51:6b:c3:05:7a:d7:
        b8:95:c4:56:ed:c1:2a:89:fa:6b:43:15:9a:34:81:3d:9e:a0:
        ef:0a:99:f3:bc:a7:22:b9:d6:a7:45:8e:bb:d0:e2:32:a4:16:
        48:f5:f0:16:ab:16:0d:2f:b2:9d:78:58:7c:cc:56:10:b5:4c:
        e2:2c:55:4e:1d:5d:04:cb:4e:9c:79:71:01:a9:a6:3a:b0:aa:
        dc:37:59:31:0e:47:0b:90:bd:aa:28:62:ba:d9:8d:95:ee:f5:
        a3:c5:ea:96:ec:b0:9d:41:2a:d0:9b:5c:50:75:02:99:47:a8:
        02:4d:f1:27:1a:14:83:b4:54:43:9c:51:ea:8c:d4:51:ea:69:
        17:ac:a1:e7:d1:2d:ef:09:8b:22:82:7e:79:ec:45:f5:e2:f3:
        01:13:25:43:9a:41:a0:e1:e5:6f:bf:40:e3:c6:02:5a:93:35:
        c7:7a:86:27:42:7a:5b:f9:95:80:a4:07:dc:74:f8:77:a1:58:
        84:59:a7:41:42:ae:64:c7:2d:d3:c3:65:d5:40:9e:3a:2c:43:
        5e:ef:01:c1:01:f2:1b:d5:f4:97:40:f2:41:a9:3f:2d:be:ac:
        aa:cc:8f:07:a6:60:c1:d7:dd:e1:d2:1c:5c:87:24:2f:46:f8:
        47:75:fa:66:98:ed:b3:4a:5b:0d:bc:d4:a5:b6:5f:1b:37:35:
        11:ab:bf:45:bc:9f:54:34:13:5e:69:e8:9b:f9:61:a3:17:0e:
        e0:3f:e0:cf:88:eb:71:6b:08:da:ed:2c:83:b9:15:31:be:54:
        ec:53:67:27:dc:a2:9b:97:64:ce:e4:c9:2e:2e:1b:cb:85:5b:
        36:86:5b:2e:73:e1:07:ae:9d:d3:46:f9:83:d4:24:ed:10:d6:
        25:0f:b2:f5:c5:de:5f:77:d6:18:00:3c:15:00:09:a5:cd:65:
        3b:6c:7b:8e:f4:f3:81:85:1b:09:87:36:04:36:5b:d1:32:22:
        43:2e:2a:77:89:1b:25:f9:88:b1:06:73:32:33:f7:94:6d:af:
        a2:b6:11:55:41:83:d3:6a:2e:0c:19:d5:e0:3e:73:c0:97:d3:
        fd:f9:ca:8c:71:17:64:9e:99:2b:1c:fd:e6:ed:06:8e:6d:b4:
        a4:42:ad:6e:fb:f8:54:21:43:d6:0d:ec:fa:88:89:f7:d8:2b:
        19:b3:35:af:94:83:ba:11:b4:16:e3:62:be:ec:bf:48:d9:9e:
        bc:07:1a:93:d2:58:90:42:8e:b2:ba:0f:f5:07:02:52:04:f2:
        34:fa:41:49:90:30:c8:15:66:bb:8e:b1:9a:63:b5:49:29:7d:
        bb:bb:c3:a6:93:3f:64:5e:2b:8d:06:17:4e:ee:85:96:e2:dc:
        4b:8a:63:98:c2:ca:81:ca:ce:34:5e:92:2e:22:c7:9e:0f:68:
        81:25:1b:86:2e:4d:e8:6c:bf:ec:5a:d6:b7:c1:01:8d:76:19:
        f7:3f:e0:34:5f:e2:33:03:f9:b2:ec:b2:14:c4:73:39:2c:4e:
        f3:b4:07:3f:6a:9c:6a:27:40:3f:89:a2:ff:43:5c:b1:2b:a2:
        87:15:23:82:0d:69:4e:d9:1c:ab:ed:1a:84:dc:df:fa:6b:63:
        05:b5:e9:eb:28:55:8f:0c:60:48:e6:6e:df:0f:ef:e2:63:90:
        e2:d0:7f:f8:53:d5:3d:64:0d:19:6b:24:32:15:bf:18:c8:94:
        a0:ff:ee:4d:46:c6:1d:90:1e:ae:6f:99:bd:3a:6b:45:10:34:
        52:d6:2c:91:31:a7:f7:7f:95:b6:16:90:0b:c3:61:8c:f6:41:
        a1:fb:f4:7c:32:69:a0:7c:b7:c9:02:88:5a:1c:78:6c:23:c9:
        1f:3e:12:6c:03:18:97:e6:dc:7e:a2:92:88:b9:ae:58:05:12:
        da:09:3d:23:32:69:36:2c:1e:56:af:27:09:af:2d:38:4b:c8:
        39:19:56:43:20:47:18:6f:f9:29:73:b7:44:c6:b5:80:cc:5d:
        78:d1:d2:3e:8e:a7:d8:2d:23:84:60:21:d9:dd:76:47:17:e0:
        a2:d0:ed:a7:de:36:a6:b6:24:11:35:95:4c:b5:d9:11:1d:00:
        78:9e:2b:74:c8:89:49:db:7a:41:ee:25:3d:1d:f9:0f:63:12:
        30:33:f0:5a:d8:e2:76:60:70:30:02:2b:c5:92:75:ce:1c:39:
        a7:90:f4:05:b2:37:28:52:7e:06:e3:46:2f:aa:aa:80
-----BEGIN CERTIFICATE-----
MIIJVzCCBQugAwIBAgIQIdYoryoVgwbTiGr7Uqi4TTBBBgkqhkiG9w0BAQowNKAP
MA0GCWCGSAFlAwQCAQUAoRwwGgYJKoZIhvcNAQEIMA0GCWCGSAFlAwQCAQUAogMC
ASAwgYQxGzAZBgNVBAMMElN3aXNzY29tIFJvb3QgQ0EgNDElMCMGA1UECwwcRGln
aXRhbCBDZXJ0aWZpY2F0ZSBTZXJ2aWNlczEeMBwGA1UEYQwVVkFUQ0gtQ0hFLTEw
MS42NTQuNDIzMREwDwYDVQQKDAhTd2lzc2NvbTELMAkGA1UEBhMCQ0gwHhcNMTkw
MTMxMTIyMTU4WhcNMjkwMTI4MTIyMTU4WjCBkzEdMBsGA1UEAwwUU3dpc3Njb20g
U2FwaGlyIENBIDQxJTAjBgNVBAsMHERpZ2l0YWwgQ2VydGlmaWNhdGUgU2Vydmlj
ZXMxHjAcBgNVBGEMFVZBVENILUNIRS0xMDEuNjU0LjQyMzEeMBwGA1UECgwVU3dp
c3Njb20gKFNjaHdlaXopIEFHMQswCQYDVQQGEwJjaDCCAiIwDQYJKoZIhvcNAQEB
BQADggIPADCCAgoCggIBAMsYuZHCEe6NPmkqTIJouJ1sX3NycgxpJhN1tTpFqjIh
JFPEODg0TJi/8IONPvmYh20cSYYcn9NC8ALUmhtMQaL96I3orrFfBp6keSKiKGH/
0/qnHdGVcha8936m7qMezeftHhoKWox3mdalEGixFyYfs+XPHKAuyE6tzQS512bP
KUYVHbdCKQiaxbdIQVbq+TpU5UUlZ17EGRtWkcNlARnSsgdMxl75jrd0Nb3bsa3U
9R/GnhUrx0+CKRYGNS+EzQ/KRIhvktpPXlMK+oPc2PpP4VPrn9UNXWx67RamQn+s
ycfFcEXzgpwri5mwWw43miuqLNcJKeGZnrMxay5+vnY9DluuK+yCfVl1POM4OAid
LFQWbqmXgN1li0ohBzRKOf2IjeqyYiNc99yT1wSKValA5i1x3MLi4NymxFbydeYf
fAUz0qWuKEcWg2D0Wjci+//fmQRgAS7YA2rlToHYvmqGhpK4PDj68ihSEffzp6pP
4aiLFg41SMa2gg/uMJc6zWdCC94qrt5jXpQwmU7PlBXsx0ifSXicOUBS9Iit8bjN
6m6Axjq9PH7XMLJCl2Jnp+2xOstDbwoTr4k/S9MuSVnfvDmUg6LZ5PuHQGr6Ggqf
8YZhDlr+WUHIPho77jzWC3Jg1TxM+LOIbH5wrQADf50zJMkwpZlzYgApwBmsYlt9
AgMBAAGjggFKMIIBRjASBgNVHRMBAf8ECDAGAQH/AgEAMB0GA1UdDgQWBBTx7ude
AaHPNr1uAgnGkvPb3qnB4DBGBggrBgEFBQcBAQQ6MDgwNgYIKwYBBQUHMAKGKmh0
dHA6Ly9haWEuc3dpc3NkaWdpY2VydC5jaC9zZGNzLXJvb3Q0LmNydDBFBgNVHSAE
PjA8MDoGCGCFdAFTHgQCMC4wLAYIKwYBBQUHAgEWIGh0dHA6Ly93d3cuc3dpc3Nk
aWdpY2VydC5jaC9jcHMvMBQGA1UdJQQNMAsGCSqGSIb3LwEBBTA7BgNVHR8ENDAy
MDCgLqAshipodHRwOi8vY3JsLnN3aXNzZGlnaWNlcnQuY2gvc2Rjcy1yb290NC5j
cmwwHwYDVR0jBBgwFoAUVFpnH2s0+Z5ZQKJfQXo+wQjGFRMwDgYDVR0PAQH/BAQD
AgEGMEEGCSqGSIb3DQEBCjA0oA8wDQYJYIZIAWUDBAIBBQChHDAaBgkqhkiG9w0B
AQgwDQYJYIZIAWUDBAIBBQCiAwIBIAOCBAEAQkb67Ho4vWWKX0sARwu2tC1blHGI
i2Fdo36HmLUzEps+hy8fpM9s5Kc3HJCSbHqBC+jMfLVltYMon3/n8M6QqyHUblQI
1o32VkseStNNgZN1TcfimqhijUiXg5+yCa0U+yel5n75A0jPrObsf30M3Pgnfmq6
G04MJSVfQYz0kSUvBnENh/tUjME3KpXqodLn/fK5uGNnkMscpdZbplgtuOWkHR2b
m5QaeEr5lhjxwJS6lQ1wIPVelSPp7MPkIZ8YUWvDBXrXuJXEVu3BKon6a0MVmjSB
PZ6g7wqZ87ynIrnWp0WOu9DiMqQWSPXwFqsWDS+ynXhYfMxWELVM4ixVTh1dBMtO
nHlxAammOrCq3DdZMQ5HC5C9qihiutmNle71o8XqluywnUEq0JtcUHUCmUeoAk3x
JxoUg7RUQ5xR6ozUUeppF6yh59Et7wmLIoJ+eexF9eLzARMlQ5pBoOHlb79A48YC
WpM1x3qGJ0J6W/mVgKQH3HT4d6FYhFmnQUKuZMct08Nl1UCeOixDXu8BwQHyG9X0
l0DyQak/Lb6sqsyPB6Zgwdfd4dIcXIckL0b4R3X6Zpjts0pbDbzUpbZfGzc1Eau/
RbyfVDQTXmnom/lhoxcO4D/gz4jrcWsI2u0sg7kVMb5U7FNnJ9yim5dkzuTJLi4b
y4VbNoZbLnPhB66d00b5g9Qk7RDWJQ+y9cXeX3fWGAA8FQAJpc1lO2x7jvTzgYUb
CYc2BDZb0TIiQy4qd4kbJfmIsQZzMjP3lG2vorYRVUGD02ouDBnV4D5zwJfT/fnK
jHEXZJ6ZKxz95u0Gjm20pEKtbvv4VCFD1g3s+oiJ99grGbM1r5SDuhG0FuNivuy/
SNmevAcak9JYkEKOsroP9QcCUgTyNPpBSZAwyBVmu46xmmO1SSl9u7vDppM/ZF4r
jQYXTu6FluLcS4pjmMLKgcrONF6SLiLHng9ogSUbhi5N6Gy/7FrWt8EBjXYZ9z/g
NF/iMwP5suyyFMRzOSxO87QHP2qcaidAP4mi/0NcsSuihxUjgg1pTtkcq+0ahNzf
+mtjBbXp6yhVjwxgSOZu3w/v4mOQ4tB/+FPVPWQNGWskMhW/GMiUoP/uTUbGHZAe
rm+ZvTprRRA0UtYskTGn93+VthaQC8NhjPZBofv0fDJpoHy3yQKIWhx4bCPJHz4S
bAMYl+bcfqKSiLmuWAUS2gk9IzJpNiweVq8nCa8tOEvIORlWQyBHGG/5KXO3RMa1
gMxdeNHSPo6n2C0jhGAh2d12RxfgotDtp942prYkETWVTLXZER0AeJ4rdMiJSdt6
Qe4lPR35D2MSMDPwWtjidmBwMAIrxZJ1zhw5p5D0BbI3KFJ+BuNGL6qqgA==
-----END CERTIFICATE-----
