Certificate:
    Data:
        Version: 3 (0x2)
        Serial Number:
            11:0f:53:b8:76:f5:43:1f:03:42:bf:d4:f7:04:46:7a
        Signature Algorithm: rsassaPss        
        Hash Algorithm: sha256
        Mask Algorithm: mgf1 with sha256
         Salt Length: 0x20
        Trailer Field: 0x01 (default)
        Issuer: CN=Swisscom Root CA 4, OU=Digital Certificate Services/organizationIdentifier=VATCH-CHE-101.654.423, O=Swisscom, C=CH
        Validity
            Not Before: Jan 31 12:23:38 2019 GMT
            Not After : Jan 28 12:23:38 2029 GMT
        Subject: CN=Swisscom Rubin CA 4, OU=Digital Certificate Services/organizationIdentifier=VATCH-CHE-101.654.423, O=Swisscom (Schweiz) AG, C=ch
        Subject Public Key Info:
            Public Key Algorithm: rsaEncryption
                Public-Key: (4096 bit)
                Modulus:
                    00:8f:b4:05:84:34:f6:ea:91:a5:19:c0:eb:49:af:
                    bd:eb:0a:86:0b:7b:3f:82:90:61:d4:f9:a5:14:1c:
                    15:c6:83:81:e3:49:2b:4d:42:9e:d6:8f:4a:5f:14:
                    64:2f:7c:c5:e4:21:0d:51:e6:1d:f3:76:ac:45:06:
                    db:ad:5b:5a:76:88:92:db:c6:9d:fe:41:fc:c6:43:
                    fd:d6:0f:29:8e:20:94:42:b3:1d:9d:ba:7b:fc:47:
                    40:58:73:78:0c:32:95:01:45:79:9a:2a:9b:be:7a:
                    c6:bd:a8:68:bd:b9:a5:4c:29:13:7f:1f:17:e7:b1:
                    28:d1:8e:f2:42:c1:d7:2d:89:a3:96:b2:87:08:40:
                    29:72:ba:85:ce:de:6d:de:30:5f:17:d1:10:b7:1d:
                    8e:09:1f:ee:02:2a:f9:ad:a7:73:79:b4:19:9c:15:
                    81:eb:dd:50:c7:57:b2:27:1f:57:f5:81:ec:83:23:
                    f1:b0:2b:51:cc:19:c4:bb:c1:43:7a:18:14:2b:72:
                    7a:4b:73:84:f6:76:b6:fc:7e:a9:17:5f:20:9e:51:
                    1d:b0:6f:9a:9c:9d:6b:92:c5:f0:cc:e7:57:f8:9f:
                    50:b4:2a:f8:ea:a2:d0:f9:bf:eb:bd:72:06:9b:f8:
                    a5:9b:9c:3c:a8:a6:d5:02:01:ad:7d:d1:f2:d1:d8:
                    c0:36:16:f7:34:9a:9d:df:74:71:a5:36:e1:d4:39:
                    a1:24:8d:74:c4:99:48:96:84:dc:1d:4a:9c:12:10:
                    b2:a9:37:1e:8a:c5:07:a0:92:50:b5:a0:d1:8a:d7:
                    70:71:69:96:02:80:e8:e1:0c:b2:cd:71:60:5f:d1:
                    98:a1:48:bb:52:40:0b:4e:32:62:e9:1c:f8:0f:12:
                    14:5d:2b:0b:b4:7a:ff:99:b0:2f:35:4e:a6:24:ec:
                    65:23:90:52:f8:0e:58:79:d0:fd:2b:1d:27:52:50:
                    db:32:d0:4c:47:98:a0:e6:d8:4c:17:25:a6:b2:35:
                    6e:95:30:f1:c5:24:6b:70:7a:33:73:0a:6d:ed:fa:
                    b4:ef:3a:b1:ba:e4:33:b5:26:27:3a:ab:25:21:fe:
                    21:29:f8:00:eb:15:03:90:67:8c:7b:4f:2c:56:f1:
                    10:60:7a:a1:9d:37:35:e5:88:57:24:dd:b8:ce:7e:
                    17:ae:b0:2c:9b:de:1b:e4:5f:22:02:f1:63:9a:54:
                    d0:5f:b2:50:82:1b:9e:6d:5b:98:00:85:6e:77:e7:
                    27:ef:22:f4:4f:bc:83:c2:ac:88:f9:63:65:84:c4:
                    27:b2:b1:28:5a:03:bc:e1:04:1a:e4:77:74:71:0c:
                    c4:fe:2b:83:42:fb:19:dc:6f:91:a5:84:ce:a8:84:
                    79:5d:03
                Exponent: 65537 (0x10001)
        X509v3 extensions:
            X509v3 Basic Constraints: critical
                CA:TRUE, pathlen:0
            X509v3 Subject Key Identifier: 
                06:E9:4A:F6:AE:C6:9A:91:2D:89:55:A1:46:E1:6E:05:FD:B1:B9:04
            Authority Information Access: 
                CA Issuers - URI:http://aia.swissdigicert.ch/sdcs-root4.crt
            X509v3 Certificate Policies: 
                Policy: 2.16.756.1.83.30.4.4
                  CPS: http://www.swissdigicert.ch/cps/
            X509v3 Extended Key Usage: 
                TLS Web Client Authentication
            X509v3 CRL Distribution Points: 
                Full Name:
                  URI:http://crl.swissdigicert.ch/sdcs-root4.crl

            X509v3 Authority Key Identifier: 
                54:5A:67:1F:6B:34:F9:9E:59:40:A2:5F:41:7A:3E:C1:08:C6:15:13
            X509v3 Key Usage: critical
                Certificate Sign, CRL Sign
    Signature Algorithm: rsassaPss
    Signature Value:        
        Hash Algorithm: sha256
        Mask Algorithm: mgf1 with sha256
         Salt Length: 0x20
        Trailer Field: 0x01 (default)
        b9:24:f6:cc:ed:49:33:51:2f:7d:99:8f:c1:d7:4d:09:d6:f7:
        84:91:50:36:c1:25:6e:e4:54:88:0d:99:6f:2c:2a:35:8c:97:
        ab:ad:c9:6a:c2:d4:96:e3:ef:54:dd:3f:73:18:2d:e3:e8:57:
        40:11:b4:57:4b:7d:ac:74:08:17:0d:e2:f8:fa:ea:d2:6e:50:
        fd:fd:48:d3:76:68:47:84:42:aa:45:ca:11:9a:2d:40:0a:78:
        4c:5d:b3:54:84:ad:b7:b8:65:16:ce:94:de:5f:69:bd:49:62:
        a0:b3:ce:e5:21:09:fa:98:1b:1d:61:f5:f2:6b:e8:94:ee:f6:
        42:cb:b6:35:72:77:4e:63:36:45:de:5b:e8:4e:53:49:17:ed:
        c4:81:0e:ca:59:13:99:0d:4c:07:cb:80:60:68:6c:d8:99:80:
        34:3d:89:32:c1:02:27:1d:29:3e:75:3f:01:9c:1e:cf:d5:cf:
        bf:01:e8:ae:2a:84:4f:49:55:d2:8f:8d:49:28:cd:ea:41:6f:
        f1:4a:c4:54:3c:a2:a5:0b:d4:97:fc:4b:74:b4:38:28:b3:be:
        47:54:67:80:d2:73:d7:6a:e3:cb:81:cb:55:d1:be:93:3b:33:
        58:af:84:a8:19:e7:00:f6:e0:75:e5:b4:87:62:56:7c:74:27:
        44:41:fa:f4:ea:fa:a3:c2:6d:e0:4b:31:78:af:09:e8:6b:c5:
        c6:1f:aa:49:23:c7:c9:d7:41:2c:f9:a5:90:f5:1b:37:37:07:
        ca:df:c2:fa:85:c2:03:16:a8:d6:11:11:91:23:23:89:02:c3:
        b9:a0:3a:eb:22:e9:a1:a7:9a:6f:fb:cb:8e:38:b7:20:37:23:
        e0:6d:06:58:de:ef:ba:f1:f6:3c:b0:80:8a:4e:7f:c0:cb:75:
        ac:0b:f8:06:18:57:76:7e:b5:99:db:23:05:30:38:1c:9f:24:
        4f:7d:a1:e9:e1:40:41:2a:21:57:55:f8:6e:cd:8c:cb:7c:60:
        9a:e0:82:96:90:99:4f:00:b4:97:41:d0:95:2f:1c:89:e1:bf:
        d7:4b:6d:ef:c8:05:d4:33:5f:25:23:e0:d3:55:37:df:ef:22:
        4a:d8:a2:81:10:ef:b1:85:65:9a:94:59:27:7c:b5:46:ff:d1:
        bc:4b:32:88:09:d1:ce:33:9c:7f:ea:5d:af:56:d9:73:7a:1c:
        d5:13:51:5a:ce:c8:63:de:9a:77:40:85:b3:55:f0:8f:80:d4:
        21:21:74:6e:7f:b3:d0:72:75:58:8e:f8:47:03:ac:aa:fe:d5:
        fd:70:54:34:82:8f:e9:ee:bd:db:2d:38:63:8a:7a:41:ce:3c:
        83:1e:37:7f:d4:c5:64:24:d8:d0:82:10:1e:d7:07:87:ee:95:
        65:92:11:c0:97:2e:c8:a7:ce:93:bb:dd:f2:9b:ed:08:60:09:
        56:43:7c:8e:8d:1b:49:cc:9f:a2:5e:84:e2:84:90:9f:c3:31:
        39:f8:3a:68:50:5c:2d:4e:1d:14:95:99:70:ce:98:06:72:1e:
        dc:04:8a:a1:98:b5:24:32:18:ce:3c:27:c9:0f:a5:45:56:07:
        b1:c3:6c:28:46:a3:e4:2e:5a:8e:b6:09:6b:08:16:97:f9:a5:
        ed:dc:7f:78:2d:39:41:0c:26:99:aa:02:3d:59:ae:44:53:9a:
        50:9c:2c:bf:03:f4:53:69:76:65:01:39:dd:18:bd:cd:99:ef:
        c3:ce:e4:35:b1:1b:ec:d8:45:bf:27:07:de:aa:cc:68:56:23:
        c3:7d:03:92:84:69:4d:ea:4b:fa:07:6b:4b:09:cb:f3:ea:de:
        ef:1a:50:cc:44:d4:9b:41:65:b4:6f:98:58:4e:aa:5d:07:f2:
        b8:ed:03:29:9b:9a:ad:cd:4b:d6:19:fe:99:02:16:f2:aa:b2:
        b9:6b:a3:29:96:bd:7e:5e:7d:b6:12:29:10:22:f4:49:a3:0e:
        bb:3c:e6:dd:22:6a:ac:91:ac:80:4d:e8:33:69:3b:7d:ef:70:
        0b:ab:35:cc:99:94:2c:db:3d:5a:61:24:8f:d2:4c:5a:06:f7:
        1c:ee:15:56:22:ba:74:b4:14:9b:a4:63:af:06:43:c0:c0:e8:
        08:59:38:d2:a4:76:42:f2:cc:0d:35:2e:81:2d:3b:e8:26:4a:
        3a:ef:09:f0:ed:82:4a:f6:71:fb:23:b0:38:e8:e6:68:69:a8:
        a3:fb:da:27:76:a3:bf:cc:ce:76:af:73:26:07:c8:7f:02:06:
        14:5a:ef:12:f6:8a:2f:82:a9:f6:46:46:34:07:81:d4:47:31:
        36:45:45:dd:64:ce:57:0b:05:aa:aa:c7:04:72:b3:49:79:b6:
        fd:07:14:f6:b7:8e:72:18:c4:9c:eb:b3:e2:3b:f7:5f:ef:59:
        ad:1b:75:2d:98:41:f4:4c:36:a0:af:db:5b:1b:15:13:03:c4:
        b3:37:c0:47:ea:6d:e9:be:c6:3a:a2:56:b6:75:cb:60:fd:07:
        95:6a:bb:85:5f:04:cc:2d:16:90:a6:c4:c0:52:02:e9:9e:b7:
        43:69:02:7a:8e:35:62:f1:9f:44:67:cd:69:e6:df:39:04:ea:
        41:9c:a4:e4:bb:42:dc:3f:9e:59:70:dd:cd:3a:3c:2f:c6:31:
        04:de:83:59:19:af:04:04:82:d0:55:59:63:af:68:e8:ab:2d:
        59:11:5c:41:ea:95:06:a2:64:e7:06:2a:4d:a0:13:b5
-----BEGIN CERTIFICATE-----
MIIJVTCCBQmgAwIBAgIQEQ9TuHb1Qx8DQr/U9wRGejBBBgkqhkiG9w0BAQowNKAP
MA0GCWCGSAFlAwQCAQUAoRwwGgYJKoZIhvcNAQEIMA0GCWCGSAFlAwQCAQUAogMC
ASAwgYQxGzAZBgNVBAMMElN3aXNzY29tIFJvb3QgQ0EgNDElMCMGA1UECwwcRGln
aXRhbCBDZXJ0aWZpY2F0ZSBTZXJ2aWNlczEeMBwGA1UEYQwVVkFUQ0gtQ0hFLTEw
MS42NTQuNDIzMREwDwYDVQQKDAhTd2lzc2NvbTELMAkGA1UEBhMCQ0gwHhcNMTkw
MTMxMTIyMzM4WhcNMjkwMTI4MTIyMzM4WjCBkjEcMBoGA1UEAwwTU3dpc3Njb20g
UnViaW4gQ0EgNDElMCMGA1UECwwcRGlnaXRhbCBDZXJ0aWZpY2F0ZSBTZXJ2aWNl
czEeMBwGA1UEYQwVVkFUQ0gtQ0hFLTEwMS42NTQuNDIzMR4wHAYDVQQKDBVTd2lz
c2NvbSAoU2Nod2VpeikgQUcxCzAJBgNVBAYTAmNoMIICIjANBgkqhkiG9w0BAQEF
AAOCAg8AMIICCgKCAgEAj7QFhDT26pGlGcDrSa+96wqGC3s/gpBh1PmlFBwVxoOB
40krTUKe1o9KXxRkL3zF5CENUeYd83asRQbbrVtadoiS28ad/kH8xkP91g8pjiCU
QrMdnbp7/EdAWHN4DDKVAUV5miqbvnrGvahovbmlTCkTfx8X57Eo0Y7yQsHXLYmj
lrKHCEApcrqFzt5t3jBfF9EQtx2OCR/uAir5radzebQZnBWB691Qx1eyJx9X9YHs
gyPxsCtRzBnEu8FDehgUK3J6S3OE9na2/H6pF18gnlEdsG+anJ1rksXwzOdX+J9Q
tCr46qLQ+b/rvXIGm/ilm5w8qKbVAgGtfdHy0djANhb3NJqd33RxpTbh1DmhJI10
xJlIloTcHUqcEhCyqTceisUHoJJQtaDRitdwcWmWAoDo4QyyzXFgX9GYoUi7UkAL
TjJi6Rz4DxIUXSsLtHr/mbAvNU6mJOxlI5BS+A5YedD9Kx0nUlDbMtBMR5ig5thM
FyWmsjVulTDxxSRrcHozcwpt7fq07zqxuuQztSYnOqslIf4hKfgA6xUDkGeMe08s
VvEQYHqhnTc15YhXJN24zn4XrrAsm94b5F8iAvFjmlTQX7JQghuebVuYAIVud+cn
7yL0T7yDwqyI+WNlhMQnsrEoWgO84QQa5Hd0cQzE/iuDQvsZ3G+RpYTOqIR5XQMC
AwEAAaOCAUkwggFFMBIGA1UdEwEB/wQIMAYBAf8CAQAwHQYDVR0OBBYEFAbpSvau
xpqRLYlVoUbhbgX9sbkEMEYGCCsGAQUFBwEBBDowODA2BggrBgEFBQcwAoYqaHR0
cDovL2FpYS5zd2lzc2RpZ2ljZXJ0LmNoL3NkY3Mtcm9vdDQuY3J0MEUGA1UdIAQ+
MDwwOgYIYIV0AVMeBAQwLjAsBggrBgEFBQcCARYgaHR0cDovL3d3dy5zd2lzc2Rp
Z2ljZXJ0LmNoL2Nwcy8wEwYDVR0lBAwwCgYIKwYBBQUHAwIwOwYDVR0fBDQwMjAw
oC6gLIYqaHR0cDovL2NybC5zd2lzc2RpZ2ljZXJ0LmNoL3NkY3Mtcm9vdDQuY3Js
MB8GA1UdIwQYMBaAFFRaZx9rNPmeWUCiX0F6PsEIxhUTMA4GA1UdDwEB/wQEAwIB
BjBBBgkqhkiG9w0BAQowNKAPMA0GCWCGSAFlAwQCAQUAoRwwGgYJKoZIhvcNAQEI
MA0GCWCGSAFlAwQCAQUAogMCASADggQBALkk9sztSTNRL32Zj8HXTQnW94SRUDbB
JW7kVIgNmW8sKjWMl6utyWrC1Jbj71TdP3MYLePoV0ARtFdLfax0CBcN4vj66tJu
UP39SNN2aEeEQqpFyhGaLUAKeExds1SErbe4ZRbOlN5fab1JYqCzzuUhCfqYGx1h
9fJr6JTu9kLLtjVyd05jNkXeW+hOU0kX7cSBDspZE5kNTAfLgGBobNiZgDQ9iTLB
AicdKT51PwGcHs/Vz78B6K4qhE9JVdKPjUkozepBb/FKxFQ8oqUL1Jf8S3S0OCiz
vkdUZ4DSc9dq48uBy1XRvpM7M1ivhKgZ5wD24HXltIdiVnx0J0RB+vTq+qPCbeBL
MXivCehrxcYfqkkjx8nXQSz5pZD1Gzc3B8rfwvqFwgMWqNYREZEjI4kCw7mgOusi
6aGnmm/7y444tyA3I+BtBlje77rx9jywgIpOf8DLdawL+AYYV3Z+tZnbIwUwOByf
JE99oenhQEEqIVdV+G7NjMt8YJrggpaQmU8AtJdB0JUvHInhv9dLbe/IBdQzXyUj
4NNVN9/vIkrYooEQ77GFZZqUWSd8tUb/0bxLMogJ0c4znH/qXa9W2XN6HNUTUVrO
yGPemndAhbNV8I+A1CEhdG5/s9BydViO+EcDrKr+1f1wVDSCj+nuvdstOGOKekHO
PIMeN3/UxWQk2NCCEB7XB4fulWWSEcCXLsinzpO73fKb7QhgCVZDfI6NG0nMn6Je
hOKEkJ/DMTn4OmhQXC1OHRSVmXDOmAZyHtwEiqGYtSQyGM48J8kPpUVWB7HDbChG
o+QuWo62CWsIFpf5pe3cf3gtOUEMJpmqAj1ZrkRTmlCcLL8D9FNpdmUBOd0Yvc2Z
78PO5DWxG+zYRb8nB96qzGhWI8N9A5KEaU3qS/oHa0sJy/Pq3u8aUMxE1JtBZbRv
mFhOql0H8rjtAymbmq3NS9YZ/pkCFvKqsrlroymWvX5efbYSKRAi9EmjDrs85t0i
aqyRrIBN6DNpO33vcAurNcyZlCzbPVphJI/STFoG9xzuFVYiunS0FJukY68GQ8DA
6AhZONKkdkLyzA01LoEtO+gmSjrvCfDtgkr2cfsjsDjo5mhpqKP72id2o7/Mznav
cyYHyH8CBhRa7xL2ii+CqfZGRjQHgdRHMTZFRd1kzlcLBaqqxwRys0l5tv0HFPa3
jnIYxJzrs+I791/vWa0bdS2YQfRMNqCv21sbFRMDxLM3wEfqbem+xjqiVrZ1y2D9
B5Vqu4VfBMwtFpCmxMBSAumet0NpAnqONWLxn0RnzWnm3zkE6kGcpOS7Qtw/nllw
3c06PC/GMQTeg1kZrwQEgtBVWWOvaOirLVkRXEHqlQaiZOcGKk2gE7U=
-----END CERTIFICATE-----
