Certificate:
    Data:
        Version: 3 (0x2)
        Serial Number:
            11:0f:53:b8:76:f5:43:1f:03:42:bf:d4:f7:04:46:7a
        Signature Algorithm: rsassaPss        
        Hash Algorithm: sha256
        Mask Algorithm: mgf1 with sha256
         Salt Length: 0x20
        Trailer Field: 0x01 (default)
        Issuer: CN=Swisscom Root CA 4, OU=Digital Certificate Services/organizationIdentifier=VATCH-CHE-101.654.423, O=Swisscom, C=CH
        Validity
            Not Before: Jan 31 12:23:38 2019 GMT
            Not After : Jan 28 12:23:38 2029 GMT
        Subject: CN=Swisscom Rubin CA 4, OU=Digital Certificate Services/organizationIdentifier=VATCH-CHE-101.654.423, O=Swisscom (Schweiz) AG, C=ch
        Subject Public Key Info:
            Public Key Algorithm: rsaEncryption
                Public-Key: (4096 bit)
                Modulus:
                    00:d1:9c:78:6c:82:d1:28:9d:03:86:b9:76:28:8a:
                    ed:4e:0f:9f:fe:47:8c:a3:bb:a9:85:65:54:7f:5c:
                    72:ae:d6:29:25:2f:66:e0:23:fa:fa:4c:b5:44:d9:
                    c0:3e:48:20:3d:fa:cd:34:bb:59:55:cf:1d:68:cb:
                    b3:3c:58:68:0c:45:ea:bd:fc:b4:72:20:7d:88:95:
                    ff:51:47:27:70:d3:d7:3e:10:3f:34:6a:c8:25:78:
                    93:43:4f:45:2b:8b:5d:ce:7f:75:9d:88:dd:c3:d1:
                    fd:84:13:50:82:3b:2d:61:de:13:fd:e0:27:69:24:
                    26:0c:d8:fa:a5:6a:7c:35:06:39:24:6b:06:30:c7:
                    db:ae:6f:2e:3e:7f:5f:d1:5a:1d:57:d8:bf:1f:98:
                    d6:34:c5:ec:06:2a:8a:99:32:6f:12:8d:18:4f:9d:
                    b6:15:40:17:94:30:c3:82:d8:df:ff:07:fb:67:6b:
                    4a:6d:df:ec:0f:94:22:98:00:ec:1f:cd:83:e5:26:
                    1c:2d:9a:24:9a:45:b2:5a:d8:af:05:b5:3d:05:ec:
                    99:f1:3d:91:6d:60:a2:78:99:27:2b:84:a0:7d:f9:
                    5d:9a:c9:f7:ee:bb:59:1c:34:9e:b7:33:ac:b6:cd:
                    45:86:b9:46:3d:78:67:5e:43:74:9d:cb:c2:c3:d3:
                    30:97:41:ca:be:43:bc:aa:49:c1:1d:4b:f9:92:69:
                    b1:19:91:b1:36:06:6e:6e:d4:ca:b2:1f:78:dd:01:
                    87:4d:ca:52:95:38:0f:3e:99:4e:32:e4:e8:59:e1:
                    1b:2a:8f:a7:aa:55:2d:26:28:c4:7c:e4:75:4f:70:
                    00:88:f7:46:c8:3e:8e:eb:5a:57:91:e0:3d:e3:bb:
                    be:e3:c1:1e:b5:f5:be:c0:cd:fe:e2:09:fb:ed:59:
                    12:d4:c5:b8:d8:d5:3b:7d:e0:7f:b6:79:c9:ff:a0:
                    35:95:3c:d6:16:71:43:ec:c7:2e:9d:f6:fb:a7:ce:
                    70:f5:33:0d:ea:ec:b1:e8:27:f8:f9:ed:cc:d4:06:
                    a0:c4:bf:c1:36:4e:e9:48:25:c9:99:d6:23:46:30:
                    80:b7:6a:b0:8c:4d:52:3e:fd:aa:b9:f8:f4:2e:88:
                    b5:79:e3:2a:d5:a1:f6:81:8d:d4:7c:23:99:ee:a2:
                    7c:0c:93:7f:b9:ae:22:0c:31:eb:7e:5d:ba:e4:f6:
                    0a:90:42:52:c2:2c:80:b2:18:64:56:79:84:84:15:
                    0b:77:8a:00:f1:00:e8:35:e4:c6:a4:28:8a:c8:2e:
                    8f:47:a5:18:2f:2c:8c:88:47:6c:87:94:7b:9e:b0:
                    63:f4:6c:63:d9:93:95:5a:2f:ea:d3:64:43:25:a6:
                    a9:19:77
                Exponent: 65537 (0x10001)
        X509v3 extensions:
            X509v3 Basic Constraints: critical
                CA:TRUE, pathlen:0
            X509v3 Subject Key Identifier: 
                06:E9:4A:F6:AE:C6:9A:91:2D:89:55:A1:46:E1:6E:05:FD:B1:B9:04
            Authority Information Access: 
                CA Issuers - URI:http://aia.swissdigicert.ch/sdcs-root4.crt
            X509v3 Certificate Policies: 
                Policy: 2.16.756.1.83.30.4.4
                  CPS: http://www.swissdigicert.ch/cps/
            X509v3 Extended Key Usage: 
                TLS Web Client Authentication
            X509v3 CRL Distribution Points: 
                Full Name:
                  URI:http://crl.swissdigicert.ch/sdcs-root4.crl

            X509v3 Authority Key Identifier: 
                54:5A:67:1F:6B:34:F9:9E:59:40:A2:5F:41:7A:3E:C1:08:C6:15:13
            X509v3 Key Usage: critical
                Certificate Sign, CRL Sign
    Signature Algorithm: rsassaPss
    Signature Value:        
        Hash Algorithm: sha256
        Mask Algorithm: mgf1 with sha256
         Salt Length: 0x20
        Trailer Field: 0x01 (default)
        72:8a:eb:8a:44:d0:84:d1:b6:51:76:49:e2:1b:dd:a7:70:39:
        22:17:eb:75:fa:17:a2:1d:be:89:e4:4a:0b:81:37:d8:00:ac:
        cd:8a:63:d1:ea:52:4e:85:29:d9:3a:e8:93:9d:7c:07:69:41:
        95:a5:2e:0f:69:bc:f4:fc:33:1d:6a:c5:57:e2:7c:95:7d:87:
        cf:ad:94:5e:bb:c0:ef:a8:4b:1b:4f:14:73:d3:8b:49:eb:e6:
        f2:b2:6b:6f:83:d3:fe:4d:59:b2:59:4a:8b:96:a9:b8:3b:b7:
        82:26:68:2b:24:30:a1:93:50:8b:1c:65:af:5d:a0:0b:bf:61:
        82:bb:21:79:a6:76:7f:d6:71:d2:65:19:83:34:e0:72:ed:79:
        82:61:dd:f7:41:6e:23:96:83:fa:d2:5b:ea:3b:25:a1:8a:88:
        a5:dd:15:4e:8b:98:43:72:49:66:c0:1d:1b:8c:0e:99:b0:42:
        4f:3f:9a:a2:27:dd:2a:11:94:c9:69:01:f6:8e:68:6b:5b:e3:
        76:8c:14:eb:b1:98:2f:8f:f7:d4:53:f8:73:69:1d:e4:6b:3c:
        86:b1:59:84:ff:c5:18:68:b9:fc:7b:14:66:9a:e6:bd:7e:00:
        ec:0b:73:54:ae:2e:4d:c8:7a:a9:c2:11:dd:20:c1:07:15:58:
        87:b8:d1:fe:d8:1d:87:30:d0:04:82:4c:9d:a4:10:ff:5b:9c:
        04:11:47:2f:45:46:24:f0:7e:ba:a8:aa:c2:ea:59:ee:73:23:
        35:22:40:2e:d8:e2:97:7f:5b:8d:00:61:17:67:1a:8e:0b:de:
        fb:02:6d:fa:d5:03:1f:b9:29:cc:5c:66:2d:2a:49:72:4d:f0:
        56:40:1e:54:a1:35:44:5d:bf:ab:a7:b8:a6:a9:ed:cc:6e:de:
        30:00:77:77:ce:0c:1a:a2:57:14:18:0a:cf:4c:73:b1:fc:4e:
        9e:bf:85:54:0d:0b:81:1e:36:f5:58:3d:1d:19:48:97:2e:3b:
        41:89:10:54:68:c6:f1:45:aa:d4:a3:18:fd:11:07:47:4e:7f:
        10:56:ad:e8:83:72:49:be:12:9c:09:73:9b:85:ec:0f:11:09:
        04:38:8f:22:94:4c:c9:e4:e6:1f:c9:1b:98:6b:85:31:13:7f:
        79:ad:39:de:25:b9:2a:a1:7a:44:9f:c0:7e:7b:28:ab:17:85:
        d2:bc:fd:43:01:f8:f5:a2:71:60:2a:4d:30:32:95:b4:33:2c:
        f1:ae:4e:0b:5c:18:54:2d:77:12:83:0a:17:da:46:44:00:2c:
        43:d7:a7:3b:d1:c1:6c:03:c4:5e:aa:df:34:88:dc:be:57:6d:
        22:7c:43:c4:59:2a:67:34:bb:0f:59:ed:f7:34:6b:ec:34:66:
        59:d1:98:4a:c5:a3:25:01:6a:7f:bf:11:2f:61:4f:89:1e:d7:
        80:4b:f1:28:d4:c5:81:61:27:55:58:76:b6:0c:7d:97:26:45:
        71:fe:8d:84:82:ea:44:24:56:c2:75:1c:8c:e9:27:17:2e:ac:
        95:81:00:55:17:bf:ab:86:ca:09:35:a9:3a:d4:79:9a:5f:23:
        42:82:71:1e:e7:65:c4:65:83:df:8f:75:e2:76:e3:4a:eb:bf:
        21:f4:46:40:ad:d7:83:10:30:42:45:dd:a3:4a:2f:9f:d8:81:
        93:d7:10:b4:e2:a1:18:7c:0a:b5:f1:8d:61:91:65:e3:21:65:
        bd:a3:2a:ef:6d:fe:83:a5:f6:c6:24:0f:f6:9d:09:84:8a:69:
        1d:b4:c1:7a:26:f7:5e:87:5c:a2:e3:ac:39:f4:ff:4e:9d:e5:
        af:b5:4a:83:a5:78:d3:d1:50:a0:e2:ee:72:2f:8a:e6:bf:51:
        44:71:6b:1e:e8:f2:a4:d0:01:cb:4e:55:a5:62:0b:b2:d7:b4:
        72:1e:64:de:20:ad:e1:2b:4b:31:f7:44:f8:42:a5:48:08:ba:
        0a:01:66:b0:6a:23:c6:14:b9:a7:31:6f:ca:6d:1a:97:ca:36:
        47:16:01:fd:52:18:43:8b:48:7d:88:88:94:28:f9:32:91:ad:
        f5:d1:10:83:99:d7:51:70:e2:c0:d7:ce:e1:02:39:cb:5e:c7:
        f6:04:01:73:2b:d4:7d:6d:ab:8b:9a:5f:8d:4a:33:1e:95:4c:
        dd:00:18:63:51:ea:28:5e:67:19:49:79:b7:57:c8:00:d9:40:
        59:fc:75:e8:00:6e:d3:7f:33:07:9d:73:a6:fd:9e:ba:c2:12:
        63:49:df:1c:20:43:74:3a:1d:c6:c4:5e:84:07:ff:78:c0:e2:
        46:3b:63:71:9d:bf:00:4f:52:e4:5f:54:d8:74:f5:1a:e4:8b:
        f3:c1:25:91:43:b1:33:bd:95:4e:0d:fb:88:c1:4c:ca:18:82:
        07:8b:47:4f:01:fe:96:61:6b:97:d0:d0:88:dd:8f:6c:d7:de:
        a4:9e:6e:6d:02:47:04:df:79:ac:4d:ae:eb:72:26:f9:97:35:
        6c:8e:04:2c:3e:88:8c:0d:c9:05:0e:54:17:e1:8a:e9:10:86:
        23:85:6e:1b:51:21:fe:f5:f5:ae:f2:6f:06:db:7a:b7:32:73:
        82:c8:d6:17:7a:bd:58:b1:3a:01:84:f5:ac:a3:e9:07:98:1d:
        29:d3:0f:7a:38:b6:72:cd:08:1e:de:50:94:95:f5:fd:f7:cd:
        49:48:93:98:bc:77:e9:78:7e:b0:f5:c3:0a:15:8f:f8
-----BEGIN CERTIFICATE-----
MIIJVTCCBQmgAwIBAgIQEQ9TuHb1Qx8DQr/U9wRGejBBBgkqhkiG9w0BAQowNKAP
MA0GCWCGSAFlAwQCAQUAoRwwGgYJKoZIhvcNAQEIMA0GCWCGSAFlAwQCAQUAogMC
ASAwgYQxGzAZBgNVBAMMElN3aXNzY29tIFJvb3QgQ0EgNDElMCMGA1UECwwcRGln
aXRhbCBDZXJ0aWZpY2F0ZSBTZXJ2aWNlczEeMBwGA1UEYQwVVkFUQ0gtQ0hFLTEw
MS42NTQuNDIzMREwDwYDVQQKDAhTd2lzc2NvbTELMAkGA1UEBhMCQ0gwHhcNMTkw
MTMxMTIyMzM4WhcNMjkwMTI4MTIyMzM4WjCBkjEcMBoGA1UEAwwTU3dpc3Njb20g
UnViaW4gQ0EgNDElMCMGA1UECwwcRGlnaXRhbCBDZXJ0aWZpY2F0ZSBTZXJ2aWNl
czEeMBwGA1UEYQwVVkFUQ0gtQ0hFLTEwMS42NTQuNDIzMR4wHAYDVQQKDBVTd2lz
c2NvbSAoU2Nod2VpeikgQUcxCzAJBgNVBAYTAmNoMIICIjANBgkqhkiG9w0BAQEF
AAOCAg8AMIICCgKCAgEA0Zx4bILRKJ0Dhrl2KIrtTg+f/keMo7uphWVUf1xyrtYp
JS9m4CP6+ky1RNnAPkggPfrNNLtZVc8daMuzPFhoDEXqvfy0ciB9iJX/UUcncNPX
PhA/NGrIJXiTQ09FK4tdzn91nYjdw9H9hBNQgjstYd4T/eAnaSQmDNj6pWp8NQY5
JGsGMMfbrm8uPn9f0VodV9i/H5jWNMXsBiqKmTJvEo0YT522FUAXlDDDgtjf/wf7
Z2tKbd/sD5QimADsH82D5SYcLZokmkWyWtivBbU9BeyZ8T2RbWCieJknK4Sgffld
msn37rtZHDSetzOsts1FhrlGPXhnXkN0ncvCw9Mwl0HKvkO8qknBHUv5kmmxGZGx
NgZubtTKsh943QGHTcpSlTgPPplOMuToWeEbKo+nqlUtJijEfOR1T3AAiPdGyD6O
61pXkeA947u+48EetfW+wM3+4gn77VkS1MW42NU7feB/tnnJ/6A1lTzWFnFD7Mcu
nfb7p85w9TMN6uyx6Cf4+e3M1AagxL/BNk7pSCXJmdYjRjCAt2qwjE1SPv2qufj0
Loi1eeMq1aH2gY3UfCOZ7qJ8DJN/ua4iDDHrfl265PYKkEJSwiyAshhkVnmEhBUL
d4oA8QDoNeTGpCiKyC6PR6UYLyyMiEdsh5R7nrBj9Gxj2ZOVWi/q02RDJaapGXcC
AwEAAaOCAUkwggFFMBIGA1UdEwEB/wQIMAYBAf8CAQAwHQYDVR0OBBYEFAbpSvau
xpqRLYlVoUbhbgX9sbkEMEYGCCsGAQUFBwEBBDowODA2BggrBgEFBQcwAoYqaHR0
cDovL2FpYS5zd2lzc2RpZ2ljZXJ0LmNoL3NkY3Mtcm9vdDQuY3J0MEUGA1UdIAQ+
MDwwOgYIYIV0AVMeBAQwLjAsBggrBgEFBQcCARYgaHR0cDovL3d3dy5zd2lzc2Rp
Z2ljZXJ0LmNoL2Nwcy8wEwYDVR0lBAwwCgYIKwYBBQUHAwIwOwYDVR0fBDQwMjAw
oC6gLIYqaHR0cDovL2NybC5zd2lzc2RpZ2ljZXJ0LmNoL3NkY3Mtcm9vdDQuY3Js
MB8GA1UdIwQYMBaAFFRaZx9rNPmeWUCiX0F6PsEIxhUTMA4GA1UdDwEB/wQEAwIB
BjBBBgkqhkiG9w0BAQowNKAPMA0GCWCGSAFlAwQCAQUAoRwwGgYJKoZIhvcNAQEI
MA0GCWCGSAFlAwQCAQUAogMCASADggQBAHKK64pE0ITRtlF2SeIb3adwOSIX63X6
F6IdvonkSguBN9gArM2KY9HqUk6FKdk66JOdfAdpQZWlLg9pvPT8Mx1qxVfifJV9
h8+tlF67wO+oSxtPFHPTi0nr5vKya2+D0/5NWbJZSouWqbg7t4ImaCskMKGTUIsc
Za9doAu/YYK7IXmmdn/WcdJlGYM04HLteYJh3fdBbiOWg/rSW+o7JaGKiKXdFU6L
mENySWbAHRuMDpmwQk8/mqIn3SoRlMlpAfaOaGtb43aMFOuxmC+P99RT+HNpHeRr
PIaxWYT/xRhoufx7FGaa5r1+AOwLc1SuLk3IeqnCEd0gwQcVWIe40f7YHYcw0ASC
TJ2kEP9bnAQRRy9FRiTwfrqoqsLqWe5zIzUiQC7Y4pd/W40AYRdnGo4L3vsCbfrV
Ax+5KcxcZi0qSXJN8FZAHlShNURdv6unuKap7cxu3jAAd3fODBqiVxQYCs9Mc7H8
Tp6/hVQNC4EeNvVYPR0ZSJcuO0GJEFRoxvFFqtSjGP0RB0dOfxBWreiDckm+EpwJ
c5uF7A8RCQQ4jyKUTMnk5h/JG5hrhTETf3mtOd4luSqhekSfwH57KKsXhdK8/UMB
+PWicWAqTTAylbQzLPGuTgtcGFQtdxKDChfaRkQALEPXpzvRwWwDxF6q3zSI3L5X
bSJ8Q8RZKmc0uw9Z7fc0a+w0ZlnRmErFoyUBan+/ES9hT4ke14BL8SjUxYFhJ1VY
drYMfZcmRXH+jYSC6kQkVsJ1HIzpJxcurJWBAFUXv6uGygk1qTrUeZpfI0KCcR7n
ZcRlg9+PdeJ240rrvyH0RkCt14MQMEJF3aNKL5/YgZPXELTioRh8CrXxjWGRZeMh
Zb2jKu9t/oOl9sYkD/adCYSKaR20wXom916HXKLjrDn0/06d5a+1SoOleNPRUKDi
7nIviua/UURxax7o8qTQActOVaViC7LXtHIeZN4greErSzH3RPhCpUgIugoBZrBq
I8YUuacxb8ptGpfKNkcWAf1SGEOLSH2IiJQo+TKRrfXREIOZ11Fw4sDXzuECOcte
x/YEAXMr1H1tq4uaX41KMx6VTN0AGGNR6iheZxlJebdXyADZQFn8degAbtN/Mwed
c6b9nrrCEmNJ3xwgQ3Q6HcbEXoQH/3jA4kY7Y3GdvwBPUuRfVNh09Rrki/PBJZFD
sTO9lU4N+4jBTMoYggeLR08B/pZha5fQ0Ijdj2zX3qSebm0CRwTfeaxNrutyJvmX
NWyOBCw+iIwNyQUOVBfhiukQhiOFbhtRIf719a7ybwbbercyc4LI1hd6vVixOgGE
9ayj6QeYHSnTD3o4tnLNCB7eUJSV9f33zUlIk5i8d+l4frD1wwoVj/g=
-----END CERTIFICATE-----
